target datalayout = "e-m:e-p270:32:32-p271:32:32-p272:64:64-i64:64-i128:128-f80:128-n8:16:32:64-S128"
target triple = "x86_64-pc-linux-gnu"

%struct.AVTextFormatContext = type { ptr, ptr, ptr, ptr, ptr, ptr, i32, i32, [12 x i32], [12 x [100 x i32]], [12 x ptr], [12 x %struct.AVBPrint], i32, i32, i32, i32, i32, ptr, i32, ptr, i32 }
%struct.AVBPrint = type { ptr, i32, i32, i32, [1 x i8], [1000 x i8] }
%struct.JSONContext = type { ptr, i32, i32, ptr, ptr }
%struct.AVTextFormatSection = type { i32, ptr, i32, [12 x i32], ptr, ptr, ptr, ptr, i32, ptr, ptr, ptr, ptr }
%struct.AVTextWriterContext = type { ptr, ptr, ptr, ptr }
%struct.AVTextWriter = type { ptr, i32, ptr, ptr, ptr, ptr, ptr, ptr }

@.str.11 = private unnamed_addr constant [4 x i8] c"%*c\00", align 1
@.str.16 = private unnamed_addr constant [36 x i8] c"Invalid section access at level %d\0A\00", align 1
@.str.19 = private unnamed_addr constant [4 x i8] c"\0A}\0A\00", align 1

; Function Attrs: inlinehint nounwind uwtable
define internal void @writer_w8(ptr noundef %0, i32 noundef %1) #4 {
  %3 = alloca ptr, align 8
  %4 = alloca i32, align 4
  store ptr %0, ptr %3, align 8, !tbaa !4
  store i32 %1, ptr %4, align 4, !tbaa !27
  %5 = load ptr, ptr %3, align 8, !tbaa !4
  %6 = getelementptr inbounds nuw %struct.AVTextFormatContext, ptr %5, i32 0, i32 2
  %7 = load ptr, ptr %6, align 8, !tbaa !38
  %8 = getelementptr inbounds nuw %struct.AVTextWriterContext, ptr %7, i32 0, i32 1
  %9 = load ptr, ptr %8, align 8, !tbaa !39
  %10 = getelementptr inbounds nuw %struct.AVTextWriter, ptr %9, i32 0, i32 5
  %11 = load ptr, ptr %10, align 8, !tbaa !50
  %12 = load ptr, ptr %3, align 8, !tbaa !4
  %13 = getelementptr inbounds nuw %struct.AVTextFormatContext, ptr %12, i32 0, i32 2
  %14 = load ptr, ptr %13, align 8, !tbaa !38
  %15 = load i32, ptr %4, align 4, !tbaa !27
  call void %11(ptr noundef %14, i32 noundef %15)
  ret void
}

; Function Attrs: inlinehint nounwind uwtable
define internal void @writer_put_str(ptr noundef %0, ptr noundef %1) #4 {
  %3 = alloca ptr, align 8
  %4 = alloca ptr, align 8
  store ptr %0, ptr %3, align 8, !tbaa !4
  store ptr %1, ptr %4, align 8, !tbaa !35
  %5 = load ptr, ptr %3, align 8, !tbaa !4
  %6 = getelementptr inbounds nuw %struct.AVTextFormatContext, ptr %5, i32 0, i32 2
  %7 = load ptr, ptr %6, align 8, !tbaa !38
  %8 = getelementptr inbounds nuw %struct.AVTextWriterContext, ptr %7, i32 0, i32 1
  %9 = load ptr, ptr %8, align 8, !tbaa !39
  %10 = getelementptr inbounds nuw %struct.AVTextWriter, ptr %9, i32 0, i32 6
  %11 = load ptr, ptr %10, align 8, !tbaa !42
  %12 = load ptr, ptr %3, align 8, !tbaa !4
  %13 = getelementptr inbounds nuw %struct.AVTextFormatContext, ptr %12, i32 0, i32 2
  %14 = load ptr, ptr %13, align 8, !tbaa !38
  %15 = load ptr, ptr %4, align 8, !tbaa !35
  call void %11(ptr noundef %14, ptr noundef %15)
  ret void
}

; Function Attrs: inlinehint nounwind uwtable
define internal ptr @tf_get_section(ptr noundef %0, i32 noundef %1) #4 {
  %3 = alloca ptr, align 8
  %4 = alloca ptr, align 8
  %5 = alloca i32, align 4
  store ptr %0, ptr %4, align 8, !tbaa !4
  store i32 %1, ptr %5, align 4, !tbaa !27
  %6 = load ptr, ptr %4, align 8, !tbaa !4
  %7 = icmp ne ptr %6, null
  br i1 %7, label %8, label %22

8:                                                ; preds = %2
  %9 = load i32, ptr %5, align 4, !tbaa !27
  %10 = icmp slt i32 %9, 0
  br i1 %10, label %22, label %11

11:                                               ; preds = %8
  %12 = load i32, ptr %5, align 4, !tbaa !27
  %13 = icmp sge i32 %12, 12
  br i1 %13, label %22, label %14

14:                                               ; preds = %11
  %15 = load ptr, ptr %4, align 8, !tbaa !4
  %16 = getelementptr inbounds nuw %struct.AVTextFormatContext, ptr %15, i32 0, i32 10
  %17 = load i32, ptr %5, align 4, !tbaa !27
  %18 = sext i32 %17 to i64
  %19 = getelementptr inbounds [12 x ptr], ptr %16, i64 0, i64 %18
  %20 = load ptr, ptr %19, align 8, !tbaa !26
  %21 = icmp ne ptr %20, null
  br i1 %21, label %29, label %22

22:                                               ; preds = %14, %11, %8, %2
  %23 = load ptr, ptr %4, align 8, !tbaa !4
  %24 = icmp ne ptr %23, null
  br i1 %24, label %25, label %28

25:                                               ; preds = %22
  %26 = load ptr, ptr %4, align 8, !tbaa !4
  %27 = load i32, ptr %5, align 4, !tbaa !27
  call void (ptr, i32, ptr, ...) @av_log(ptr noundef %26, i32 noundef 16, ptr noundef @.str.16, i32 noundef %27)
  br label %28

28:                                               ; preds = %25, %22
  store ptr null, ptr %3, align 8
  br label %36

29:                                               ; preds = %14
  %30 = load ptr, ptr %4, align 8, !tbaa !4
  %31 = getelementptr inbounds nuw %struct.AVTextFormatContext, ptr %30, i32 0, i32 10
  %32 = load i32, ptr %5, align 4, !tbaa !27
  %33 = sext i32 %32 to i64
  %34 = getelementptr inbounds [12 x ptr], ptr %31, i64 0, i64 %33
  %35 = load ptr, ptr %34, align 8, !tbaa !26
  store ptr %35, ptr %3, align 8
  br label %36

36:                                               ; preds = %29, %28
  %37 = load ptr, ptr %3, align 8
  ret ptr %37
}

; Function Attrs: nounwind uwtable
define internal void @json_print_section_footer(ptr noundef %0) #1 {
  %2 = alloca ptr, align 8
  %3 = alloca ptr, align 8
  %4 = alloca ptr, align 8
  %5 = alloca i32, align 4
  store ptr %0, ptr %2, align 8, !tbaa !4
  call void @llvm.lifetime.start.p0(i64 8, ptr %3) #7
  %6 = load ptr, ptr %2, align 8, !tbaa !4
  %7 = load ptr, ptr %2, align 8, !tbaa !4
  %8 = getelementptr inbounds nuw %struct.AVTextFormatContext, ptr %7, i32 0, i32 7
  %9 = load i32, ptr %8, align 4, !tbaa !25
  %10 = call ptr @tf_get_section(ptr noundef %6, i32 noundef %9)
  store ptr %10, ptr %3, align 8, !tbaa !26
  call void @llvm.lifetime.start.p0(i64 8, ptr %4) #7
  %11 = load ptr, ptr %2, align 8, !tbaa !4
  %12 = getelementptr inbounds nuw %struct.AVTextFormatContext, ptr %11, i32 0, i32 4
  %13 = load ptr, ptr %12, align 8, !tbaa !9
  store ptr %13, ptr %4, align 8, !tbaa !18
  %14 = load ptr, ptr %3, align 8, !tbaa !26
  %15 = icmp ne ptr %14, null
  br i1 %15, label %17, label %16

16:                                               ; preds = %1
  store i32 1, ptr %5, align 4
  br label %69

17:                                               ; preds = %1
  %18 = load ptr, ptr %2, align 8, !tbaa !4
  %19 = getelementptr inbounds nuw %struct.AVTextFormatContext, ptr %18, i32 0, i32 7
  %20 = load i32, ptr %19, align 4, !tbaa !25
  %21 = icmp eq i32 %20, 0
  br i1 %21, label %22, label %28

22:                                               ; preds = %17
  %23 = load ptr, ptr %4, align 8, !tbaa !18
  %24 = getelementptr inbounds nuw %struct.JSONContext, ptr %23, i32 0, i32 1
  %25 = load i32, ptr %24, align 8, !tbaa !31
  %26 = add nsw i32 %25, -1
  store i32 %26, ptr %24, align 8, !tbaa !31
  %27 = load ptr, ptr %2, align 8, !tbaa !4
  call void @writer_put_str(ptr noundef %27, ptr noundef @.str.19)
  br label %68

28:                                               ; preds = %17
  %29 = load ptr, ptr %3, align 8, !tbaa !26
  %30 = getelementptr inbounds nuw %struct.AVTextFormatSection, ptr %29, i32 0, i32 2
  %31 = load i32, ptr %30, align 8, !tbaa !28
  %32 = and i32 %31, 2
  %33 = icmp ne i32 %32, 0
  br i1 %33, label %34, label %46

34:                                               ; preds = %28
  %35 = load ptr, ptr %2, align 8, !tbaa !4
  call void @writer_w8(ptr noundef %35, i32 noundef 10)
  %36 = load ptr, ptr %4, align 8, !tbaa !18
  %37 = getelementptr inbounds nuw %struct.JSONContext, ptr %36, i32 0, i32 1
  %38 = load i32, ptr %37, align 8, !tbaa !31
  %39 = add nsw i32 %38, -1
  store i32 %39, ptr %37, align 8, !tbaa !31
  %40 = load ptr, ptr %2, align 8, !tbaa !4
  %41 = load ptr, ptr %4, align 8, !tbaa !18
  %42 = getelementptr inbounds nuw %struct.JSONContext, ptr %41, i32 0, i32 1
  %43 = load i32, ptr %42, align 8, !tbaa !31
  %44 = mul nsw i32 %43, 4
  call void (ptr, ptr, ...) @writer_printf(ptr noundef %40, ptr noundef @.str.11, i32 noundef %44, i32 noundef 32)
  %45 = load ptr, ptr %2, align 8, !tbaa !4
  call void @writer_w8(ptr noundef %45, i32 noundef 93)
  br label %67

46:                                               ; preds = %28
  %47 = load ptr, ptr %2, align 8, !tbaa !4
  %48 = load ptr, ptr %4, align 8, !tbaa !18
  %49 = getelementptr inbounds nuw %struct.JSONContext, ptr %48, i32 0, i32 4
  %50 = load ptr, ptr %49, align 8, !tbaa !23
  call void @writer_put_str(ptr noundef %47, ptr noundef %50)
  %51 = load ptr, ptr %4, align 8, !tbaa !18
  %52 = getelementptr inbounds nuw %struct.JSONContext, ptr %51, i32 0, i32 1
  %53 = load i32, ptr %52, align 8, !tbaa !31
  %54 = add nsw i32 %53, -1
  store i32 %54, ptr %52, align 8, !tbaa !31
  %55 = load ptr, ptr %4, align 8, !tbaa !18
  %56 = getelementptr inbounds nuw %struct.JSONContext, ptr %55, i32 0, i32 2
  %57 = load i32, ptr %56, align 4, !tbaa !20
  %58 = icmp ne i32 %57, 0
  br i1 %58, label %65, label %59

59:                                               ; preds = %46
  %60 = load ptr, ptr %2, align 8, !tbaa !4
  %61 = load ptr, ptr %4, align 8, !tbaa !18
  %62 = getelementptr inbounds nuw %struct.JSONContext, ptr %61, i32 0, i32 1
  %63 = load i32, ptr %62, align 8, !tbaa !31
  %64 = mul nsw i32 %63, 4
  call void (ptr, ptr, ...) @writer_printf(ptr noundef %60, ptr noundef @.str.11, i32 noundef %64, i32 noundef 32)
  br label %65

65:                                               ; preds = %59, %46
  %66 = load ptr, ptr %2, align 8, !tbaa !4
  call void @writer_w8(ptr noundef %66, i32 noundef 125)
  br label %67

67:                                               ; preds = %65, %34
  br label %68

68:                                               ; preds = %67, %22
  store i32 0, ptr %5, align 4
  br label %69

69:                                               ; preds = %68, %16
  call void @llvm.lifetime.end.p0(i64 8, ptr %4) #7
  call void @llvm.lifetime.end.p0(i64 8, ptr %3) #7
  %70 = load i32, ptr %5, align 4
  switch i32 %70, label %72 [
    i32 0, label %71
    i32 1, label %71
  ]

71:                                               ; preds = %69, %69
  ret void

72:                                               ; preds = %69
  unreachable
}