; Function Attrs: nounwind uwtable
define internal void @json_print_section_footer(ptr noundef %0) #1 {
  %2 = getelementptr inbounds nuw i8, ptr %0, i64 52
  %3 = load i32, ptr %2, align 4, !tbaa !20
  %4 = icmp eq ptr %0, null
  %5 = icmp ugt i32 %3, 11
  %or.cond3.i = or i1 %4, %5
  br i1 %or.cond3.i, label %tf_get_section.exit.thread, label %6

6:                                                ; preds = %1
  %7 = getelementptr inbounds nuw i8, ptr %0, i64 4904
  %8 = zext nneg i32 %3 to i64
  %9 = getelementptr inbounds nuw [12 x ptr], ptr %7, i64 0, i64 %8
  %10 = load ptr, ptr %9, align 8, !tbaa !21
  %.not.i = icmp eq ptr %10, null
  br i1 %.not.i, label %tf_get_section.exit.thread, label %11

tf_get_section.exit.thread:                       ; preds = %6, %1
  tail call void (ptr, i32, ptr, ...) @av_log(ptr noundef nonnull %0, i32 noundef 16, ptr noundef nonnull @.str.16, i32 noundef %3) #7
  br label %62

11:                                               ; preds = %6
  %12 = getelementptr inbounds nuw i8, ptr %0, i64 32
  %13 = load ptr, ptr %12, align 8, !tbaa !4
  %14 = icmp eq i32 %3, 0
  br i1 %14, label %15, label %24

15:                                               ; preds = %11
  %16 = getelementptr inbounds nuw i8, ptr %13, i64 8
  %17 = load i32, ptr %16, align 8, !tbaa !32
  %18 = add nsw i32 %17, -1
  store i32 %18, ptr %16, align 8, !tbaa !32
  %19 = getelementptr i8, ptr %0, i64 16
  %.val = load ptr, ptr %19, align 8, !tbaa !23
  %20 = getelementptr inbounds nuw i8, ptr %.val, i64 8
  %21 = load ptr, ptr %20, align 8, !tbaa !24
  %22 = getelementptr inbounds nuw i8, ptr %21, i64 48
  %23 = load ptr, ptr %22, align 8, !tbaa !27
  tail call void %23(ptr noundef %.val, ptr noundef nonnull @.str.19) #7
  br label %62

24:                                               ; preds = %11
  %25 = getelementptr inbounds nuw i8, ptr %10, i64 16
  %26 = load i32, ptr %25, align 8, !tbaa !29
  %27 = and i32 %26, 2
  %.not20 = icmp eq i32 %27, 0
  br i1 %.not20, label %42, label %28

28:                                               ; preds = %24
  %29 = getelementptr i8, ptr %0, i64 16
  %.val23 = load ptr, ptr %29, align 8, !tbaa !23
  %30 = getelementptr inbounds nuw i8, ptr %.val23, i64 8
  %31 = load ptr, ptr %30, align 8, !tbaa !24
  %32 = getelementptr inbounds nuw i8, ptr %31, i64 40
  %33 = load ptr, ptr %32, align 8, !tbaa !36
  tail call void %33(ptr noundef %.val23, i32 noundef 10) #7
  %34 = getelementptr inbounds nuw i8, ptr %13, i64 8
  %35 = load i32, ptr %34, align 8, !tbaa !32
  %36 = add nsw i32 %35, -1
  store i32 %36, ptr %34, align 8, !tbaa !32
  %37 = shl nsw i32 %36, 2
  tail call void (ptr, ptr, ...) @writer_printf(ptr noundef nonnull %0, ptr noundef nonnull @.str.11, i32 noundef %37, i32 noundef 32)
  %.val24 = load ptr, ptr %29, align 8, !tbaa !23
  %38 = getelementptr inbounds nuw i8, ptr %.val24, i64 8
  %39 = load ptr, ptr %38, align 8, !tbaa !24
  %40 = getelementptr inbounds nuw i8, ptr %39, i64 40
  %41 = load ptr, ptr %40, align 8, !tbaa !36
  tail call void %41(ptr noundef %.val24, i32 noundef 93) #7
  br label %62

42:                                               ; preds = %24
  %43 = getelementptr inbounds nuw i8, ptr %13, i64 24
  %44 = load ptr, ptr %43, align 8, !tbaa !19
  %45 = getelementptr i8, ptr %0, i64 16
  %.val22 = load ptr, ptr %45, align 8, !tbaa !23
  %46 = getelementptr inbounds nuw i8, ptr %.val22, i64 8
  %47 = load ptr, ptr %46, align 8, !tbaa !24
  %48 = getelementptr inbounds nuw i8, ptr %47, i64 48
  %49 = load ptr, ptr %48, align 8, !tbaa !27
  tail call void %49(ptr noundef %.val22, ptr noundef %44) #7
  %50 = getelementptr inbounds nuw i8, ptr %13, i64 8
  %51 = load i32, ptr %50, align 8, !tbaa !32
  %52 = add nsw i32 %51, -1
  store i32 %52, ptr %50, align 8, !tbaa !32
  %53 = getelementptr inbounds nuw i8, ptr %13, i64 12
  %54 = load i32, ptr %53, align 4, !tbaa !16
  %.not21 = icmp eq i32 %54, 0
  br i1 %.not21, label %55, label %57

55:                                               ; preds = %42
  %56 = shl nsw i32 %52, 2
  tail call void (ptr, ptr, ...) @writer_printf(ptr noundef nonnull %0, ptr noundef nonnull @.str.11, i32 noundef %56, i32 noundef 32)
  br label %57

57:                                               ; preds = %55, %42
  %.val25 = load ptr, ptr %45, align 8, !tbaa !23
  %58 = getelementptr inbounds nuw i8, ptr %.val25, i64 8
  %59 = load ptr, ptr %58, align 8, !tbaa !24
  %60 = getelementptr inbounds nuw i8, ptr %59, i64 40
  %61 = load ptr, ptr %60, align 8, !tbaa !36
  tail call void %61(ptr noundef %.val25, i32 noundef 125) #7
  br label %62

62:                                               ; preds = %tf_get_section.exit.thread, %15, %57, %28
  ret void
}